target datalayout = "e-m:e-p270:32:32-p271:32:32-p272:64:64-i64:64-i128:128-f80:128-n8:16:32:64-S128"
target triple = "x86_64-pc-linux-gnu"

@allow_customize = internal global i32 1, align 4
@malloc_impl = internal global ptr @CRYPTO_malloc, align 8

; Function Attrs: nounwind uwtable
define noalias ptr @CRYPTO_malloc(i64 noundef %0, ptr noundef %1, i32 noundef %2) #0 {
  %4 = alloca ptr, align 8
  %5 = alloca i64, align 8
  %6 = alloca ptr, align 8
  %7 = alloca i32, align 4
  %8 = alloca ptr, align 8
  %9 = alloca i32, align 4
  store i64 %0, ptr %5, align 8, !tbaa !9
  store ptr %1, ptr %6, align 8, !tbaa !11
  store i32 %2, ptr %7, align 4, !tbaa !7
  call void @llvm.lifetime.start.p0(i64 8, ptr %8) #8
  %10 = load ptr, ptr @malloc_impl, align 8, !tbaa !3
  %11 = icmp ne ptr %10, @CRYPTO_malloc
  br i1 %11, label %12, label %26

12:                                               ; preds = %3
  %13 = load ptr, ptr @malloc_impl, align 8, !tbaa !3
  %14 = load i64, ptr %5, align 8, !tbaa !9
  %15 = load ptr, ptr %6, align 8, !tbaa !11
  %16 = load i32, ptr %7, align 4, !tbaa !7
  %17 = call ptr %13(i64 noundef %14, ptr noundef %15, i32 noundef %16)
  store ptr %17, ptr %8, align 8, !tbaa !3
  %18 = load ptr, ptr %8, align 8, !tbaa !3
  %19 = icmp ne ptr %18, null
  br i1 %19, label %23, label %20

20:                                               ; preds = %12
  %21 = load i64, ptr %5, align 8, !tbaa !9
  %22 = icmp eq i64 %21, 0
  br i1 %22, label %23, label %25

23:                                               ; preds = %20, %12
  %24 = load ptr, ptr %8, align 8, !tbaa !3
  store ptr %24, ptr %4, align 8
  store i32 1, ptr %9, align 4
  br label %52

25:                                               ; preds = %20
  br label %42

26:                                               ; preds = %3
  %27 = load i64, ptr %5, align 8, !tbaa !9
  %28 = icmp eq i64 %27, 0
  br i1 %28, label %29, label %30

29:                                               ; preds = %26
  store ptr null, ptr %4, align 8
  store i32 1, ptr %9, align 4
  br label %52

30:                                               ; preds = %26
  %31 = load i32, ptr @allow_customize, align 4, !tbaa !7
  %32 = icmp ne i32 %31, 0
  br i1 %32, label %33, label %34

33:                                               ; preds = %30
  store i32 0, ptr @allow_customize, align 4, !tbaa !7
  br label %34

34:                                               ; preds = %33, %30
  %35 = load i64, ptr %5, align 8, !tbaa !9
  %36 = call noalias ptr @malloc(i64 noundef %35) #9
  store ptr %36, ptr %8, align 8, !tbaa !3
  %37 = load ptr, ptr %8, align 8, !tbaa !3
  %38 = icmp ne ptr %37, null
  br i1 %38, label %39, label %41

39:                                               ; preds = %34
  %40 = load ptr, ptr %8, align 8, !tbaa !3
  store ptr %40, ptr %4, align 8
  store i32 1, ptr %9, align 4
  br label %52

41:                                               ; preds = %34
  br label %42

42:                                               ; preds = %41, %25
  %43 = load ptr, ptr %6, align 8, !tbaa !11
  %44 = icmp ne ptr %43, null
  br i1 %44, label %48, label %45

45:                                               ; preds = %42
  %46 = load i32, ptr %7, align 4, !tbaa !7
  %47 = icmp ne i32 %46, 0
  br i1 %47, label %48, label %51

48:                                               ; preds = %45, %42
  call void @ERR_new()
  %49 = load ptr, ptr %6, align 8, !tbaa !11
  %50 = load i32, ptr %7, align 4, !tbaa !7
  call void @ERR_set_debug(ptr noundef %49, i32 noundef %50, ptr noundef null)
  call void (i32, i32, ptr, ...) @ERR_set_error(i32 noundef 15, i32 noundef 786688, ptr noundef null)
  br label %51

51:                                               ; preds = %48, %45
  store ptr null, ptr %4, align 8
  store i32 1, ptr %9, align 4
  br label %52

52:                                               ; preds = %51, %39, %29, %23
  call void @llvm.lifetime.end.p0(i64 8, ptr %8) #8
  %53 = load ptr, ptr %4, align 8
  ret ptr %53
}

; Function Attrs: nounwind uwtable
define noalias ptr @CRYPTO_aligned_alloc(i64 noundef %0, i64 noundef %1, ptr noundef %2, ptr noundef %3, i32 noundef %4) #0 {
  %6 = alloca ptr, align 8
  %7 = alloca i64, align 8
  %8 = alloca i64, align 8
  %9 = alloca ptr, align 8
  %10 = alloca ptr, align 8
  %11 = alloca i32, align 4
  %12 = alloca ptr, align 8
  %13 = alloca i32, align 4
  store i64 %0, ptr %7, align 8, !tbaa !9
  store i64 %1, ptr %8, align 8, !tbaa !9
  store ptr %2, ptr %9, align 8, !tbaa !3
  store ptr %3, ptr %10, align 8, !tbaa !11
  store i32 %4, ptr %11, align 4, !tbaa !7
  call void @llvm.lifetime.start.p0(i64 8, ptr %12) #8
  %14 = load ptr, ptr %9, align 8, !tbaa !3
  store ptr null, ptr %14, align 8, !tbaa !3
  %15 = load ptr, ptr @malloc_impl, align 8, !tbaa !3
  %16 = icmp eq ptr %15, @CRYPTO_malloc
  br i1 %16, label %17, label %27

17:                                               ; preds = %5
  %18 = load i64, ptr %8, align 8, !tbaa !9
  %19 = load i64, ptr %7, align 8, !tbaa !9
  %20 = call i32 @posix_memalign(ptr noundef %12, i64 noundef %18, i64 noundef %19) #8
  %21 = icmp ne i32 %20, 0
  br i1 %21, label %22, label %23

22:                                               ; preds = %17
  store ptr null, ptr %6, align 8
  store i32 1, ptr %13, align 4
  br label %53

23:                                               ; preds = %17
  %24 = load ptr, ptr %12, align 8, !tbaa !3
  %25 = load ptr, ptr %9, align 8, !tbaa !3
  store ptr %24, ptr %25, align 8, !tbaa !3
  %26 = load ptr, ptr %12, align 8, !tbaa !3
  store ptr %26, ptr %6, align 8
  store i32 1, ptr %13, align 4
  br label %53

27:                                               ; preds = %5
  %28 = load i64, ptr %7, align 8, !tbaa !9
  %29 = load i64, ptr %8, align 8, !tbaa !9
  %30 = add i64 %28, %29
  %31 = load ptr, ptr %10, align 8, !tbaa !11
  %32 = load i32, ptr %11, align 4, !tbaa !7
  %33 = call noalias ptr @CRYPTO_malloc(i64 noundef %30, ptr noundef %31, i32 noundef %32)
  %34 = load ptr, ptr %9, align 8, !tbaa !3
  store ptr %33, ptr %34, align 8, !tbaa !3
  %35 = load ptr, ptr %9, align 8, !tbaa !3
  %36 = load ptr, ptr %35, align 8, !tbaa !3
  %37 = icmp eq ptr %36, null
  br i1 %37, label %38, label %39

38:                                               ; preds = %27
  store ptr null, ptr %6, align 8
  store i32 1, ptr %13, align 4
  br label %53

39:                                               ; preds = %27
  %40 = load ptr, ptr %9, align 8, !tbaa !3
  %41 = load ptr, ptr %40, align 8, !tbaa !3
  %42 = load i64, ptr %8, align 8, !tbaa !9
  %43 = sub i64 %42, 1
  %44 = getelementptr inbounds nuw i8, ptr %41, i64 %43
  store ptr %44, ptr %12, align 8, !tbaa !3
  %45 = load ptr, ptr %12, align 8, !tbaa !3
  %46 = ptrtoint ptr %45 to i64
  %47 = load i64, ptr %8, align 8, !tbaa !9
  %48 = sub i64 %47, 1
  %49 = xor i64 %48, -1
  %50 = and i64 %46, %49
  %51 = inttoptr i64 %50 to ptr
  store ptr %51, ptr %12, align 8, !tbaa !3
  %52 = load ptr, ptr %12, align 8, !tbaa !3
  store ptr %52, ptr %6, align 8
  store i32 1, ptr %13, align 4
  br label %53

53:                                               ; preds = %39, %38, %23, %22
  call void @llvm.lifetime.end.p0(i64 8, ptr %12) #8
  %54 = load ptr, ptr %6, align 8
  ret ptr %54
}