; Function Attrs: nounwind uwtable
define noalias ptr @CRYPTO_aligned_alloc(i64 noundef %0, i64 noundef %1, ptr noundef writeonly captures(none) initializes((0, 8)) %2, ptr noundef %3, i32 noundef %4) local_unnamed_addr #2 {
  %6 = alloca ptr, align 8
  call void @llvm.lifetime.start.p0(i64 8, ptr nonnull %6) #11
  store ptr null, ptr %2, align 8, !tbaa !3
  %7 = load ptr, ptr @malloc_impl, align 8, !tbaa !3
  %8 = icmp eq ptr %7, @CRYPTO_malloc
  br i1 %8, label %9, label %13

9:                                                ; preds = %5
  %10 = call i32 @posix_memalign(ptr noundef nonnull %6, i64 noundef %1, i64 noundef %0) #11
  %.not = icmp eq i32 %10, 0
  br i1 %.not, label %11, label %30

11:                                               ; preds = %9
  %12 = load ptr, ptr %6, align 8, !tbaa !3
  store ptr %12, ptr %2, align 8, !tbaa !3
  br label %30

13:                                               ; preds = %5
  %14 = add i64 %1, %0
  %15 = tail call ptr %7(i64 noundef %14, ptr noundef %3, i32 noundef %4) #11
  %16 = icmp ne ptr %15, null
  %17 = icmp eq i64 %14, 0
  %or.cond.i = or i1 %17, %16
  br i1 %or.cond.i, label %CRYPTO_malloc.exit, label %18

18:                                               ; preds = %13
  %19 = icmp ne ptr %3, null
  %20 = icmp ne i32 %4, 0
  %or.cond3.i = or i1 %19, %20
  br i1 %or.cond3.i, label %21, label %CRYPTO_malloc.exit.thread

21:                                               ; preds = %18
  tail call void @ERR_new() #11
  tail call void @ERR_set_debug(ptr noundef %3, i32 noundef %4, ptr noundef null) #11
  tail call void (i32, i32, ptr, ...) @ERR_set_error(i32 noundef 15, i32 noundef 786688, ptr noundef null) #11
  br label %CRYPTO_malloc.exit.thread

CRYPTO_malloc.exit.thread:                        ; preds = %18, %21
  store ptr null, ptr %2, align 8, !tbaa !3
  br label %30

CRYPTO_malloc.exit:                               ; preds = %13
  store ptr %15, ptr %2, align 8, !tbaa !3
  %22 = icmp eq ptr %15, null
  br i1 %22, label %30, label %23

23:                                               ; preds = %CRYPTO_malloc.exit
  %24 = getelementptr i8, ptr %15, i64 %1
  %25 = getelementptr i8, ptr %24, i64 -1
  %26 = ptrtoint ptr %25 to i64
  %27 = sub i64 0, %1
  %28 = and i64 %26, %27
  %29 = inttoptr i64 %28 to ptr
  br label %30

30:                                               ; preds = %CRYPTO_malloc.exit.thread, %CRYPTO_malloc.exit, %9, %23, %11
  %.0 = phi ptr [ %12, %11 ], [ %29, %23 ], [ null, %9 ], [ null, %CRYPTO_malloc.exit ], [ null, %CRYPTO_malloc.exit.thread ]
  call void @llvm.lifetime.end.p0(i64 8, ptr nonnull %6) #11
  ret ptr %.0
}